; Function Attrs: mustprogress uwtable
define void @_ZN5ZXing12BinaryBitmapC2ERKNS_9ImageViewE(ptr nocapture noundef nonnull writeonly align 8 dereferenceable(56) %0, ptr nocapture noundef nonnull readonly align 8 dereferenceable(28) %1) unnamed_addr #0 align 2 personality ptr @__gxx_personality_v0 {
  store ptr getelementptr inbounds inrange(-16, 32) ({ [6 x ptr] }, ptr @_ZTVN5ZXing12BinaryBitmapE, i64 0, i32 0, i64 2), ptr %0, align 8
  %3 = getelementptr inbounds i8, ptr %0, i64 8
  %4 = tail call noalias noundef nonnull dereferenceable(24) ptr @_Znwm(i64 noundef 24) #15
  store i32 0, ptr %4, align 4
  %5 = getelementptr inbounds i8, ptr %4, i64 8
  tail call void @llvm.memset.p0.i64(ptr noundef nonnull align 8 dereferenceable(16) %5, i8 0, i64 16, i1 false)
  store ptr %4, ptr %3, align 8
  %6 = getelementptr inbounds i8, ptr %0, i64 16
  store i8 0, ptr %6, align 8
  %7 = getelementptr inbounds i8, ptr %0, i64 17
  store i8 0, ptr %7, align 1
  %8 = getelementptr inbounds i8, ptr %0, i64 24
  tail call void @llvm.memcpy.p0.p0.i64(ptr noundef nonnull align 8 dereferenceable(32) %8, ptr noundef nonnull align 8 dereferenceable(32) %1, i64 32, i1 false)
  ret void
}